; ModuleID = '6/2809.c'
source_filename = "6/2809.c"
target datalayout = "e-m:e-p270:32:32-p271:32:32-p272:64:64-i64:64-f80:128-n8:16:32:64-S128"
target triple = "x86_64-pc-linux-gnu"

@.str = private unnamed_addr constant [3 x i8] c"%d\00", align 1
@.str.1 = private unnamed_addr constant [5 x i8] c"%d%d\00", align 1
@.str.2 = private unnamed_addr constant [4 x i8] c"%d\0A\00", align 1

; Function Attrs: noinline nounwind uwtable
define dso_local i32 @main() #0 {
  %1 = alloca i32, align 4
  %2 = alloca i32, align 4
  %3 = alloca i32, align 4
  %4 = alloca i32, align 4
  %5 = alloca i32, align 4
  %6 = alloca i32, align 4
  %7 = alloca [111 x [111 x i32]], align 16
  %8 = alloca i32, align 4
  %9 = alloca i32, align 4
  store i32 0, i32* %1, align 4
  store i32 0, i32* %9, align 4
  %10 = call i32 (i8*, ...) @__isoc99_scanf(i8* getelementptr inbounds ([3 x i8], [3 x i8]* @.str, i64 0, i64 0), i32* %8)
  store i32 0, i32* %9, align 4
  br label %11

11:                                               ; preds = %130, %0
  %12 = load i32, i32* %9, align 4
  %13 = load i32, i32* %8, align 4
  %14 = icmp slt i32 %12, %13
  br i1 %14, label %15, label %133

15:                                               ; preds = %11
  store i32 0, i32* %6, align 4
  %16 = call i32 (i8*, ...) @__isoc99_scanf(i8* getelementptr inbounds ([5 x i8], [5 x i8]* @.str.1, i64 0, i64 0), i32* %2, i32* %3)
  store i32 0, i32* %4, align 4
  br label %17

17:                                               ; preds = %38, %15
  %18 = load i32, i32* %4, align 4
  %19 = load i32, i32* %2, align 4
  %20 = icmp slt i32 %18, %19
  br i1 %20, label %21, label %41

21:                                               ; preds = %17
  store i32 0, i32* %5, align 4
  br label %22

22:                                               ; preds = %34, %21
  %23 = load i32, i32* %5, align 4
  %24 = load i32, i32* %3, align 4
  %25 = icmp slt i32 %23, %24
  br i1 %25, label %26, label %37

26:                                               ; preds = %22
  %27 = load i32, i32* %4, align 4
  %28 = sext i32 %27 to i64
  %29 = getelementptr inbounds [111 x [111 x i32]], [111 x [111 x i32]]* %7, i64 0, i64 %28
  %30 = load i32, i32* %5, align 4
  %31 = sext i32 %30 to i64
  %32 = getelementptr inbounds [111 x i32], [111 x i32]* %29, i64 0, i64 %31
  %33 = call i32 (i8*, ...) @__isoc99_scanf(i8* getelementptr inbounds ([3 x i8], [3 x i8]* @.str, i64 0, i64 0), i32* %32)
  br label %34

34:                                               ; preds = %26
  %35 = load i32, i32* %5, align 4
  %36 = add nsw i32 %35, 1
  store i32 %36, i32* %5, align 4
  br label %22

37:                                               ; preds = %22
  br label %38

38:                                               ; preds = %37
  %39 = load i32, i32* %4, align 4
  %40 = add nsw i32 %39, 1
  store i32 %40, i32* %4, align 4
  br label %17

41:                                               ; preds = %17
  %42 = load i32, i32* %2, align 4
  %43 = icmp ne i32 %42, 1
  br i1 %43, label %44, label %99

44:                                               ; preds = %41
  %45 = load i32, i32* %3, align 4
  %46 = icmp ne i32 %45, 1
  br i1 %46, label %47, label %99

47:                                               ; preds = %44
  store i32 0, i32* %5, align 4
  br label %48

48:                                               ; preds = %69, %47
  %49 = load i32, i32* %5, align 4
  %50 = load i32, i32* %3, align 4
  %51 = icmp slt i32 %49, %50
  br i1 %51, label %52, label %72

52:                                               ; preds = %48
  %53 = getelementptr inbounds [111 x [111 x i32]], [111 x [111 x i32]]* %7, i64 0, i64 0
  %54 = load i32, i32* %5, align 4
  %55 = sext i32 %54 to i64
  %56 = getelementptr inbounds [111 x i32], [111 x i32]* %53, i64 0, i64 %55
  %57 = load i32, i32* %56, align 4
  %58 = load i32, i32* %2, align 4
  %59 = sub nsw i32 %58, 1
  %60 = sext i32 %59 to i64
  %61 = getelementptr inbounds [111 x [111 x i32]], [111 x [111 x i32]]* %7, i64 0, i64 %60
  %62 = load i32, i32* %5, align 4
  %63 = sext i32 %62 to i64
  %64 = getelementptr inbounds [111 x i32], [111 x i32]* %61, i64 0, i64 %63
  %65 = load i32, i32* %64, align 4
  %66 = add nsw i32 %57, %65
  %67 = load i32, i32* %6, align 4
  %68 = add nsw i32 %67, %66
  store i32 %68, i32* %6, align 4
  br label %69

69:                                               ; preds = %52
  %70 = load i32, i32* %5, align 4
  %71 = add nsw i32 %70, 1
  store i32 %71, i32* %5, align 4
  br label %48

72:                                               ; preds = %48
  store i32 1, i32* %4, align 4
  br label %73

73:                                               ; preds = %95, %72
  %74 = load i32, i32* %4, align 4
  %75 = load i32, i32* %2, align 4
  %76 = sub nsw i32 %75, 1
  %77 = icmp slt i32 %74, %76
  br i1 %77, label %78, label %98

78:                                               ; preds = %73
  %79 = load i32, i32* %4, align 4
  %80 = sext i32 %79 to i64
  %81 = getelementptr inbounds [111 x [111 x i32]], [111 x [111 x i32]]* %7, i64 0, i64 %80
  %82 = getelementptr inbounds [111 x i32], [111 x i32]* %81, i64 0, i64 0
  %83 = load i32, i32* %82, align 4
  %84 = load i32, i32* %4, align 4
  %85 = sext i32 %84 to i64
  %86 = getelementptr inbounds [111 x [111 x i32]], [111 x [111 x i32]]* %7, i64 0, i64 %85
  %87 = load i32, i32* %3, align 4
  %88 = sub nsw i32 %87, 1
  %89 = sext i32 %88 to i64
  %90 = getelementptr inbounds [111 x i32], [111 x i32]* %86, i64 0, i64 %89
  %91 = load i32, i32* %90, align 4
  %92 = add nsw i32 %83, %91
  %93 = load i32, i32* %6, align 4
  %94 = add nsw i32 %93, %92
  store i32 %94, i32* %6, align 4
  br label %95

95:                                               ; preds = %78
  %96 = load i32, i32* %4, align 4
  %97 = add nsw i32 %96, 1
  store i32 %97, i32* %4, align 4
  br label %73

98:                                               ; preds = %73
  br label %127

99:                                               ; preds = %44, %41
  store i32 0, i32* %4, align 4
  br label %100

100:                                              ; preds = %123, %99
  %101 = load i32, i32* %4, align 4
  %102 = load i32, i32* %2, align 4
  %103 = icmp slt i32 %101, %102
  br i1 %103, label %104, label %126

104:                                              ; preds = %100
  store i32 0, i32* %5, align 4
  br label %105

105:                                              ; preds = %119, %104
  %106 = load i32, i32* %5, align 4
  %107 = load i32, i32* %3, align 4
  %108 = icmp slt i32 %106, %107
  br i1 %108, label %109, label %122

109:                                              ; preds = %105
  %110 = load i32, i32* %4, align 4
  %111 = sext i32 %110 to i64
  %112 = getelementptr inbounds [111 x [111 x i32]], [111 x [111 x i32]]* %7, i64 0, i64 %111
  %113 = load i32, i32* %5, align 4
  %114 = sext i32 %113 to i64
  %115 = getelementptr inbounds [111 x i32], [111 x i32]* %112, i64 0, i64 %114
  %116 = load i32, i32* %115, align 4
  %117 = load i32, i32* %6, align 4
  %118 = add nsw i32 %117, %116
  store i32 %118, i32* %6, align 4
  br label %119

119:                                              ; preds = %109
  %120 = load i32, i32* %5, align 4
  %121 = add nsw i32 %120, 1
  store i32 %121, i32* %5, align 4
  br label %105

122:                                              ; preds = %105
  br label %123

123:                                              ; preds = %122
  %124 = load i32, i32* %4, align 4
  %125 = add nsw i32 %124, 1
  store i32 %125, i32* %4, align 4
  br label %100

126:                                              ; preds = %100
  br label %127

127:                                              ; preds = %126, %98
  %128 = load i32, i32* %6, align 4
  %129 = call i32 (i8*, ...) @printf(i8* getelementptr inbounds ([4 x i8], [4 x i8]* @.str.2, i64 0, i64 0), i32 %128)
  br label %130

130:                                              ; preds = %127
  %131 = load i32, i32* %9, align 4
  %132 = add nsw i32 %131, 1
  store i32 %132, i32* %9, align 4
  br label %11

133:                                              ; preds = %11
  ret i32 0
}

declare dso_local i32 @__isoc99_scanf(i8*, ...) #1

declare dso_local i32 @printf(i8*, ...) #1


!llvm.module.flags = !{!0}
!llvm.ident = !{!1}

!0 = !{i32 1, !"wchar_size", i32 4}
!1 = !{!"clang version 10.0.0-4ubuntu1 "}
